target datalayout = "e-m:e-p270:32:32-p271:32:32-p272:64:64-i64:64-i128:128-f80:128-n8:16:32:64-S128"
target triple = "x86_64-pc-linux-gnu"

%"class.icu_77::UObject" = type { ptr }
%"class.icu_77::UnicodeString" = type { %"class.icu_77::Replaceable", %"union.icu_77::UnicodeString::StackBufferOrFields" }
%"class.icu_77::Replaceable" = type { %"class.icu_77::UObject" }
%"union.icu_77::UnicodeString::StackBufferOrFields" = type { %struct.anon.0, [32 x i8] }
%struct.anon.0 = type { i16, i32, i32, ptr }
%"class.icu_77::CacheEntry" = type { i32, %"class.icu_77::UnicodeString", ptr }

; Function Attrs: mustprogress nounwind uwtable
define linkonce_odr void @_ZN6icu_7710CacheEntryD2Ev(ptr noundef nonnull align 8 dereferenceable(80) %0) unnamed_addr #4 comdat align 2 {
  %2 = alloca ptr, align 8
  store ptr %0, ptr %2, align 8, !tbaa !64
  %3 = load ptr, ptr %2, align 8
  %4 = getelementptr inbounds nuw %"class.icu_77::CacheEntry", ptr %3, i32 0, i32 2
  %5 = load ptr, ptr %4, align 8, !tbaa !71
  %6 = icmp eq ptr %5, null
  br i1 %6, label %11, label %7

7:                                                ; preds = %1
  %8 = load ptr, ptr %5, align 8, !tbaa !10
  %9 = getelementptr inbounds ptr, ptr %8, i64 1
  %10 = load ptr, ptr %9, align 8
  call void %10(ptr noundef nonnull align 8 dereferenceable(8) %5) #10
  br label %11

11:                                               ; preds = %7, %1
  %12 = getelementptr inbounds nuw %"class.icu_77::CacheEntry", ptr %3, i32 0, i32 1
  call void @_ZN6icu_7713UnicodeStringD1Ev(ptr noundef nonnull align 8 dereferenceable(64) %12) #10
  ret void
}

; Function Attrs: mustprogress nounwind uwtable
define linkonce_odr noundef ptr @_ZN6icu_7710CacheEntry5unrefEv(ptr noundef nonnull align 8 dereferenceable(80) %0) #4 comdat align 2 {
  %2 = alloca ptr, align 8
  %3 = alloca ptr, align 8
  store ptr %0, ptr %3, align 8, !tbaa !64
  %4 = load ptr, ptr %3, align 8
  %5 = getelementptr inbounds nuw %"class.icu_77::CacheEntry", ptr %4, i32 0, i32 0
  %6 = load i32, ptr %5, align 8, !tbaa !90
  %7 = add nsw i32 %6, -1
  store i32 %7, ptr %5, align 8, !tbaa !90
  %8 = icmp eq i32 %7, 0
  br i1 %8, label %9, label %13

9:                                                ; preds = %1
  %10 = icmp eq ptr %4, null
  br i1 %10, label %12, label %11

11:                                               ; preds = %9
  call void @_ZN6icu_7710CacheEntryD2Ev(ptr noundef nonnull align 8 dereferenceable(80) %4) #10
  call void @_ZN6icu_777UMemorydlEPv(ptr noundef %4) #10
  br label %12

12:                                               ; preds = %11, %9
  store ptr null, ptr %2, align 8
  br label %14

13:                                               ; preds = %1
  store ptr %4, ptr %2, align 8
  br label %14

14:                                               ; preds = %13, %12
  %15 = load ptr, ptr %2, align 8
  ret ptr %15
}

; Function Attrs: mustprogress uwtable
define internal void @_ZN6icu_77L12cacheDeleterEPv(ptr noundef %0) #0 {
  %2 = alloca ptr, align 8
  store ptr %0, ptr %2, align 8, !tbaa !32
  %3 = load ptr, ptr %2, align 8, !tbaa !32
  %4 = call noundef ptr @_ZN6icu_7710CacheEntry5unrefEv(ptr noundef nonnull align 8 dereferenceable(80) %3)
  ret void
}