; Function Attrs: mustprogress uwtable
define internal void @_ZN6icu_77L12cacheDeleterEPv(ptr noundef %0) #0 {
  %2 = load i32, ptr %0, align 8, !tbaa !45
  %3 = add nsw i32 %2, -1
  store i32 %3, ptr %0, align 8, !tbaa !45
  %4 = icmp eq i32 %3, 0
  br i1 %4, label %5, label %_ZN6icu_7710CacheEntry5unrefEv.exit

5:                                                ; preds = %1
  %6 = getelementptr inbounds nuw i8, ptr %0, i64 72
  %7 = load ptr, ptr %6, align 8, !tbaa !47
  %8 = icmp eq ptr %7, null
  br i1 %8, label %_ZN6icu_7710CacheEntryD2Ev.exit.i, label %9

9:                                                ; preds = %5
  %10 = load ptr, ptr %7, align 8, !tbaa !3
  %11 = getelementptr inbounds nuw i8, ptr %10, i64 8
  %12 = load ptr, ptr %11, align 8
  tail call void %12(ptr noundef nonnull align 8 dereferenceable(8) %7) #17
  br label %_ZN6icu_7710CacheEntryD2Ev.exit.i

_ZN6icu_7710CacheEntryD2Ev.exit.i:                ; preds = %9, %5
  %13 = getelementptr inbounds nuw i8, ptr %0, i64 8
  tail call void @_ZN6icu_7713UnicodeStringD1Ev(ptr noundef nonnull align 8 dereferenceable(64) %13) #17
  tail call void @_ZN6icu_777UMemorydlEPv(ptr noundef nonnull align 8 dereferenceable(80) %0) #17
  br label %_ZN6icu_7710CacheEntry5unrefEv.exit

_ZN6icu_7710CacheEntry5unrefEv.exit:              ; preds = %1, %_ZN6icu_7710CacheEntryD2Ev.exit.i
  ret void
}